target datalayout = "e-m:e-p270:32:32-p271:32:32-p272:64:64-i64:64-i128:128-f80:128-n8:16:32:64-S128"
target triple = "x86_64-pc-linux-gnu"

%struct.ZSTDv07_frameParams = type { i64, i32, i32, i32 }

; Function Attrs: nounwind uwtable
define i64 @ZSTDv07_getDecompressedSize(ptr noundef %0, i64 noundef %1) #0 {
  %3 = alloca i64, align 8
  %4 = alloca ptr, align 8
  %5 = alloca i64, align 8
  %6 = alloca %struct.ZSTDv07_frameParams, align 8
  %7 = alloca i64, align 8
  %8 = alloca i32, align 4
  store ptr %0, ptr %4, align 8, !tbaa !12
  store i64 %1, ptr %5, align 8, !tbaa !3
  call void @llvm.lifetime.start.p0(i64 24, ptr %6) #11
  call void @llvm.lifetime.start.p0(i64 8, ptr %7) #11
  %9 = load ptr, ptr %4, align 8, !tbaa !12
  %10 = load i64, ptr %5, align 8, !tbaa !3
  %11 = call i64 @ZSTDv07_getFrameParams(ptr noundef %6, ptr noundef %9, i64 noundef %10)
  store i64 %11, ptr %7, align 8, !tbaa !3
  %12 = load i64, ptr %7, align 8, !tbaa !3
  %13 = icmp ne i64 %12, 0
  br i1 %13, label %14, label %15

14:                                               ; preds = %2
  store i64 0, ptr %3, align 8
  store i32 1, ptr %8, align 4
  br label %18

15:                                               ; preds = %2
  %16 = getelementptr inbounds nuw %struct.ZSTDv07_frameParams, ptr %6, i32 0, i32 0
  %17 = load i64, ptr %16, align 8, !tbaa !90
  store i64 %17, ptr %3, align 8
  store i32 1, ptr %8, align 4
  br label %18

18:                                               ; preds = %15, %14
  call void @llvm.lifetime.end.p0(i64 8, ptr %7) #11
  call void @llvm.lifetime.end.p0(i64 24, ptr %6) #11
  %19 = load i64, ptr %3, align 8
  ret i64 %19
}