; Function Attrs: mustprogress nofree norecurse nosync nounwind willreturn memory(argmem: readwrite) uwtable
define i64 @ZSTDv07_getDecompressedSize(ptr noundef readonly captures(none) %0, i64 noundef %1) local_unnamed_addr #13 {
  %3 = alloca %struct.ZSTDv07_frameParams, align 8
  call void @llvm.lifetime.start.p0(i64 24, ptr nonnull %3) #26
  %4 = call i64 @ZSTDv07_getFrameParams(ptr noundef nonnull %3, ptr noundef %0, i64 noundef %1)
  %.not = icmp eq i64 %4, 0
  %5 = load i64, ptr %3, align 8
  %.0 = select i1 %.not, i64 %5, i64 0
  call void @llvm.lifetime.end.p0(i64 24, ptr nonnull %3) #26
  ret i64 %.0
}